target datalayout = "e-m:e-p270:32:32-p271:32:32-p272:64:64-i64:64-i128:128-f80:128-n8:16:32:64-S128"
target triple = "x86_64-pc-linux-gnu"

%struct.print_field = type { i32, ptr, ptr, i16 }

@fields = external global [0 x %struct.print_field], align 8
@.str = private unnamed_addr constant [2 x i8] c" \00", align 1
@.str.1 = private unnamed_addr constant [2 x i8] c"\0A\00", align 1
@.str.2 = private unnamed_addr constant [6 x i8] c"%-19s\00", align 1

; Function Attrs: nounwind uwtable
define dso_local void @_help_fields_msg() #0 {
  %1 = alloca i32, align 4
  call void @llvm.lifetime.start.p0(i64 4, ptr %1) #10
  store i32 0, ptr %1, align 4
  br label %2

2:                                                ; preds = %28, %0
  %3 = load i32, ptr %1, align 4
  %4 = sext i32 %3 to i64
  %5 = getelementptr inbounds [0 x %struct.print_field], ptr @fields, i64 0, i64 %4
  %6 = getelementptr inbounds nuw %struct.print_field, ptr %5, i32 0, i32 1
  %7 = load ptr, ptr %6, align 8
  %8 = icmp ne ptr %7, null
  br i1 %8, label %9, label %31

9:                                                ; preds = %2
  %10 = load i32, ptr %1, align 4
  %11 = and i32 %10, 3
  %12 = icmp ne i32 %11, 0
  br i1 %12, label %13, label %15

13:                                               ; preds = %9
  %14 = call i32 (ptr, ...) @printf(ptr noundef @.str)
  br label %21

15:                                               ; preds = %9
  %16 = load i32, ptr %1, align 4
  %17 = icmp ne i32 %16, 0
  br i1 %17, label %18, label %20

18:                                               ; preds = %15
  %19 = call i32 (ptr, ...) @printf(ptr noundef @.str.1)
  br label %20

20:                                               ; preds = %18, %15
  br label %21

21:                                               ; preds = %20, %13
  %22 = load i32, ptr %1, align 4
  %23 = sext i32 %22 to i64
  %24 = getelementptr inbounds [0 x %struct.print_field], ptr @fields, i64 0, i64 %23
  %25 = getelementptr inbounds nuw %struct.print_field, ptr %24, i32 0, i32 1
  %26 = load ptr, ptr %25, align 8
  %27 = call i32 (ptr, ...) @printf(ptr noundef @.str.2, ptr noundef %26)
  br label %28

28:                                               ; preds = %21
  %29 = load i32, ptr %1, align 4
  %30 = add nsw i32 %29, 1
  store i32 %30, ptr %1, align 4
  br label %2, !llvm.loop !8

31:                                               ; preds = %2
  %32 = call i32 (ptr, ...) @printf(ptr noundef @.str.1)
  call void @llvm.lifetime.end.p0(i64 4, ptr %1) #10
  ret void
}